; Function Attrs: nounwind uwtable
define ptr @l_Lean_Meta_Grind_cases(ptr noundef %0, ptr noundef %1, ptr noundef %2, ptr noundef %3, ptr noundef %4, ptr noundef %5, ptr noundef %6) local_unnamed_addr #1 {
  %8 = ptrtoint ptr %0 to i64
  %9 = and i64 %8, 1
  %.not = icmp eq i64 %9, 0
  br i1 %.not, label %10, label %lean_inc.exit

10:                                               ; preds = %7
  %.val.i = load i32, ptr %0, align 4, !tbaa !4
  %11 = icmp sgt i32 %.val.i, 0
  br i1 %11, label %12, label %14, !prof !11

12:                                               ; preds = %10
  %13 = add nuw i32 %.val.i, 1
  store i32 %13, ptr %0, align 4, !tbaa !4
  br label %lean_inc.exit

14:                                               ; preds = %10
  %.not.i = icmp eq i32 %.val.i, 0
  br i1 %.not.i, label %lean_inc.exit, label %15

15:                                               ; preds = %14
  tail call void @lean_inc_ref_cold(ptr noundef nonnull %0) #6
  br label %lean_inc.exit

lean_inc.exit:                                    ; preds = %15, %14, %12, %7
  tail call void @lean_inc_heartbeat() #6
  %16 = tail call noalias ptr @mi_malloc_small(i64 noundef 40) #6
  %17 = icmp eq ptr %16, null
  br i1 %17, label %18, label %lean_alloc_closure.exit

18:                                               ; preds = %lean_inc.exit
  tail call void @lean_internal_panic_out_of_memory() #7
  unreachable

lean_alloc_closure.exit:                          ; preds = %lean_inc.exit
  %19 = getelementptr inbounds nuw i8, ptr %16, i64 4
  store i32 1, ptr %16, align 4, !tbaa !4
  store i32 -184549336, ptr %19, align 4
  %20 = getelementptr inbounds nuw i8, ptr %16, i64 8
  store ptr @l_Lean_Meta_Grind_cases___lambda__4, ptr %20, align 8, !tbaa !9
  %21 = getelementptr inbounds nuw i8, ptr %16, i64 16
  store i16 7, ptr %21, align 8, !tbaa !17
  %22 = getelementptr inbounds nuw i8, ptr %16, i64 18
  store i16 2, ptr %22, align 2, !tbaa !17
  %23 = getelementptr inbounds nuw i8, ptr %16, i64 24
  store ptr %0, ptr %23, align 8, !tbaa !9
  %24 = getelementptr inbounds nuw i8, ptr %16, i64 32
  store ptr %1, ptr %24, align 8, !tbaa !9
  %25 = tail call ptr @l_Lean_MVarId_withContext___at___private_Lean_Meta_SynthInstance_0__Lean_Meta_synthPendingImp___spec__2___rarg(ptr noundef %0, ptr noundef nonnull %16, ptr noundef %2, ptr noundef %3, ptr noundef %4, ptr noundef %5, ptr noundef %6) #6
  ret ptr %25
}